; Function Attrs: mustprogress uwtable
define noundef zeroext i1 @_ZNK17grpc_event_engine12experimental14BasicWorkQueue5EmptyEv(ptr noundef nonnull align 8 dereferenceable(104) %0) unnamed_addr #3 align 2 personality ptr @__gxx_personality_v0 {
  %2 = getelementptr inbounds nuw i8, ptr %0, i64 8
  tail call void @_ZN4absl12lts_202407225Mutex4LockEv(ptr noundef nonnull align 8 dereferenceable(8) %2)
  %3 = getelementptr inbounds nuw i8, ptr %0, i64 64
  %4 = getelementptr inbounds nuw i8, ptr %0, i64 32
  %5 = load ptr, ptr %3, align 8, !tbaa !24
  %6 = load ptr, ptr %4, align 8, !tbaa !24
  invoke void @_ZN4absl12lts_202407225Mutex6UnlockEv(ptr noundef nonnull align 8 dereferenceable(8) %2)
          to label %_ZN4absl12lts_202407229MutexLockD2Ev.exit unwind label %7

7:                                                ; preds = %1
  %8 = landingpad { ptr, i32 }
          catch ptr null
  %9 = extractvalue { ptr, i32 } %8, 0
  tail call void @__clang_call_terminate(ptr %9) #16
  unreachable

_ZN4absl12lts_202407229MutexLockD2Ev.exit:        ; preds = %1
  %10 = icmp eq ptr %5, %6
  ret i1 %10
}